target datalayout = "e-m:e-p270:32:32-p271:32:32-p272:64:64-i64:64-i128:128-f80:128-n8:16:32:64-S128"
target triple = "x86_64-pc-linux-gnu"

%struct.uv_buf_t = type { ptr, i64 }
%struct.uv_fs_s = type { ptr, i32, [6 x ptr], i32, ptr, ptr, i64, ptr, ptr, %struct.uv_stat_t, ptr, i32, i32, i32, i32, ptr, i64, i32, i32, double, double, %struct.uv__work, [4 x %struct.uv_buf_t] }
%struct.uv_stat_t = type { i64, i64, i64, i64, i64, i64, i64, i64, i64, i64, i64, i64, %struct.uv_timespec_t, %struct.uv_timespec_t, %struct.uv_timespec_t, %struct.uv_timespec_t }
%struct.uv_timespec_t = type { i64, i64 }
%struct.uv__work = type { ptr, ptr, ptr, [2 x ptr] }

; Function Attrs: nounwind uwtable
define internal ptr @uv__get_nbufs(ptr noundef %0) #0 {
  %2 = alloca ptr, align 8
  store ptr %0, ptr %2, align 8, !tbaa !93
  %3 = load ptr, ptr %2, align 8, !tbaa !93
  %4 = getelementptr inbounds nuw %struct.uv_fs_s, ptr %3, i32 0, i32 14
  ret ptr %4
}

; Function Attrs: nounwind uwtable
define dso_local void @uv__fs_scandir_cleanup(ptr noundef %0) #0 {
  %2 = alloca ptr, align 8
  %3 = alloca ptr, align 8
  %4 = alloca ptr, align 8
  store ptr %0, ptr %2, align 8, !tbaa !93
  call void @llvm.lifetime.start.p0(i64 8, ptr %3) #13
  call void @llvm.lifetime.start.p0(i64 8, ptr %4) #13
  %5 = load ptr, ptr %2, align 8, !tbaa !93
  %6 = call ptr @uv__get_nbufs(ptr noundef %5)
  store ptr %6, ptr %4, align 8, !tbaa !84
  %7 = load ptr, ptr %2, align 8, !tbaa !93
  %8 = getelementptr inbounds nuw %struct.uv_fs_s, ptr %7, i32 0, i32 7
  %9 = load ptr, ptr %8, align 8, !tbaa !95
  store ptr %9, ptr %3, align 8, !tbaa !101
  %10 = load ptr, ptr %4, align 8, !tbaa !84
  %11 = load i32, ptr %10, align 4, !tbaa !15
  %12 = icmp ugt i32 %11, 0
  br i1 %12, label %13, label %25

13:                                               ; preds = %1
  %14 = load ptr, ptr %4, align 8, !tbaa !84
  %15 = load i32, ptr %14, align 4, !tbaa !15
  %16 = load ptr, ptr %2, align 8, !tbaa !93
  %17 = getelementptr inbounds nuw %struct.uv_fs_s, ptr %16, i32 0, i32 6
  %18 = load i64, ptr %17, align 8, !tbaa !103
  %19 = trunc i64 %18 to i32
  %20 = icmp ne i32 %15, %19
  br i1 %20, label %21, label %25

21:                                               ; preds = %13
  %22 = load ptr, ptr %4, align 8, !tbaa !84
  %23 = load i32, ptr %22, align 4, !tbaa !15
  %24 = add i32 %23, -1
  store i32 %24, ptr %22, align 4, !tbaa !15
  br label %25

25:                                               ; preds = %21, %13, %1
  br label %26

26:                                               ; preds = %41, %25
  %27 = load ptr, ptr %4, align 8, !tbaa !84
  %28 = load i32, ptr %27, align 4, !tbaa !15
  %29 = load ptr, ptr %2, align 8, !tbaa !93
  %30 = getelementptr inbounds nuw %struct.uv_fs_s, ptr %29, i32 0, i32 6
  %31 = load i64, ptr %30, align 8, !tbaa !103
  %32 = trunc i64 %31 to i32
  %33 = icmp ult i32 %28, %32
  br i1 %33, label %34, label %45

34:                                               ; preds = %26
  %35 = load ptr, ptr %3, align 8, !tbaa !101
  %36 = load ptr, ptr %4, align 8, !tbaa !84
  %37 = load i32, ptr %36, align 4, !tbaa !15
  %38 = zext i32 %37 to i64
  %39 = getelementptr inbounds nuw ptr, ptr %35, i64 %38
  %40 = load ptr, ptr %39, align 8, !tbaa !104
  call void @free(ptr noundef %40) #13
  br label %41

41:                                               ; preds = %34
  %42 = load ptr, ptr %4, align 8, !tbaa !84
  %43 = load i32, ptr %42, align 4, !tbaa !15
  %44 = add i32 %43, 1
  store i32 %44, ptr %42, align 4, !tbaa !15
  br label %26, !llvm.loop !106

45:                                               ; preds = %26
  %46 = load ptr, ptr %2, align 8, !tbaa !93
  %47 = getelementptr inbounds nuw %struct.uv_fs_s, ptr %46, i32 0, i32 7
  %48 = load ptr, ptr %47, align 8, !tbaa !95
  call void @free(ptr noundef %48) #13
  %49 = load ptr, ptr %2, align 8, !tbaa !93
  %50 = getelementptr inbounds nuw %struct.uv_fs_s, ptr %49, i32 0, i32 7
  store ptr null, ptr %50, align 8, !tbaa !95
  call void @llvm.lifetime.end.p0(i64 8, ptr %4) #13
  call void @llvm.lifetime.end.p0(i64 8, ptr %3) #13
  ret void
}