; Function Attrs: nounwind uwtable
define dso_local void @uv__fs_scandir_cleanup(ptr noundef captures(none) %0) local_unnamed_addr #0 {
  %2 = getelementptr inbounds nuw i8, ptr %0, i64 292
  %3 = getelementptr inbounds nuw i8, ptr %0, i64 96
  %4 = load ptr, ptr %3, align 8, !tbaa !66
  %5 = load i32, ptr %2, align 4, !tbaa !10
  %.not = icmp eq i32 %5, 0
  %.phi.trans.insert = getelementptr inbounds nuw i8, ptr %0, i64 88
  %.pre = load i64, ptr %.phi.trans.insert, align 8, !tbaa !73
  %.pre17 = trunc i64 %.pre to i32
  br i1 %.not, label %._crit_edge15, label %6

6:                                                ; preds = %1
  %.not14 = icmp eq i32 %5, %.pre17
  br i1 %.not14, label %._crit_edge15, label %7

7:                                                ; preds = %6
  %8 = add i32 %5, -1
  store i32 %8, ptr %2, align 4, !tbaa !10
  br label %._crit_edge15

._crit_edge15:                                    ; preds = %1, %7, %6
  %9 = phi i32 [ %8, %7 ], [ %5, %6 ], [ 0, %1 ]
  %10 = getelementptr inbounds nuw i8, ptr %0, i64 88
  %11 = icmp ult i32 %9, %.pre17
  br i1 %11, label %.lr.ph, label %._crit_edge

.lr.ph:                                           ; preds = %._crit_edge15, %.lr.ph
  %12 = phi i32 [ %17, %.lr.ph ], [ %9, %._crit_edge15 ]
  %13 = zext i32 %12 to i64
  %14 = getelementptr inbounds nuw ptr, ptr %4, i64 %13
  %15 = load ptr, ptr %14, align 8, !tbaa !74
  tail call void @free(ptr noundef %15) #26
  %16 = load i32, ptr %2, align 4, !tbaa !10
  %17 = add i32 %16, 1
  store i32 %17, ptr %2, align 4, !tbaa !10
  %18 = load i64, ptr %10, align 8, !tbaa !73
  %19 = trunc i64 %18 to i32
  %20 = icmp ult i32 %17, %19
  br i1 %20, label %.lr.ph, label %._crit_edge.loopexit, !llvm.loop !76

._crit_edge.loopexit:                             ; preds = %.lr.ph
  %.pre16 = load ptr, ptr %3, align 8, !tbaa !66
  br label %._crit_edge

._crit_edge:                                      ; preds = %._crit_edge.loopexit, %._crit_edge15
  %21 = phi ptr [ %.pre16, %._crit_edge.loopexit ], [ %4, %._crit_edge15 ]
  tail call void @free(ptr noundef %21) #26
  store ptr null, ptr %3, align 8, !tbaa !66
  ret void
}